target datalayout = "e-m:e-p270:32:32-p271:32:32-p272:64:64-i64:64-i128:128-f80:128-n8:16:32:64-S128"
target triple = "x86_64-pc-linux-gnu"

%struct._zend_executor_globals = type { %struct._zval_struct, %struct._zval_struct, [32 x ptr], ptr, ptr, %struct._zend_array, %struct._zend_array, ptr, i32, i32, ptr, ptr, ptr, ptr, ptr, ptr, i64, ptr, ptr, i32, i32, i64, i32, i32, i32, i8, i8, %struct.zend_atomic_bool_s, %struct.zend_atomic_bool_s, ptr, i64, ptr, ptr, %struct._zend_array, %struct._zend_array, i32, i8, %struct._zval_struct, %struct._zval_struct, %struct._zend_stack, %struct._zend_stack, %struct._zend_stack, ptr, i32, i32, i64, ptr, ptr, ptr, %struct._zend_objects_store, ptr, ptr, ptr, [3 x %struct._zend_op], ptr, i8, i8, i64, i32, i32, ptr, [16 x %struct._HashTableIterator], ptr, %union._zend_function, %struct._zend_op, %struct._zend_array, i64, %struct.zend_get_gc_buffer, ptr, ptr, ptr, i64, i8, i32, ptr, ptr, i64, %struct._zend_call_stack, i64, i64, [6 x ptr] }
%struct.zend_atomic_bool_s = type { i8 }
%struct._zval_struct = type { %union._zend_value, %union.anon.3, %union.anon.6 }
%union._zend_value = type { i64 }
%union.anon.3 = type { i32 }
%union.anon.6 = type { i32 }
%struct._zend_stack = type { i32, i32, i32, ptr }
%struct._zend_objects_store = type { ptr, i32, i32, i32 }
%struct._HashTableIterator = type { ptr, i32, i32 }
%union._zend_function = type { %struct._zend_op_array }
%struct._zend_op_array = type { i8, [3 x i8], i32, ptr, ptr, ptr, i32, i32, ptr, ptr, ptr, ptr, i32, i32, i32, i32, ptr, ptr, ptr, ptr, ptr, i32, i32, ptr, ptr, ptr, i32, i32, i32, i32, ptr, ptr, [6 x ptr] }
%struct._zend_op = type { ptr, %union._znode_op, %union._znode_op, %union._znode_op, i32, i32, i8, i8, i8, i8 }
%union._znode_op = type { i32 }
%struct._zend_array = type { %struct._zend_refcounted_h, %union.anon.0, i32, %union.anon.1, i32, i32, i32, i32, i64, ptr }
%struct._zend_refcounted_h = type { i32, %union.anon }
%union.anon = type { i32 }
%union.anon.0 = type { i32 }
%union.anon.1 = type { ptr }
%struct.zend_get_gc_buffer = type { ptr, ptr, ptr }
%struct._zend_call_stack = type { ptr, i64 }
%struct._spl_SplObjectStorage = type { %struct._zend_array, i64, i32, i64, ptr, %struct._zend_object }
%struct._zend_object = type { %struct._zend_refcounted_h, i32, ptr, ptr, ptr, [1 x %struct._zval_struct] }
%struct._zend_execute_data = type { ptr, ptr, ptr, ptr, %struct._zval_struct, ptr, ptr, ptr, ptr }

@executor_globals = external global %struct._zend_executor_globals, align 8
@.str.2 = private unnamed_addr constant [3 x i8] c"|l\00", align 1

; Function Attrs: nounwind uwtable
define internal ptr @spl_object_storage_from_obj(ptr noundef %0) #0 {
  %2 = alloca ptr, align 8
  store ptr %0, ptr %2, align 8
  %3 = load ptr, ptr %2, align 8
  %4 = getelementptr inbounds i8, ptr %3, i64 -88
  ret ptr %4
}

; Function Attrs: nounwind uwtable
define hidden void @zim_SplObjectStorage_count(ptr noundef %0, ptr noundef %1) #0 {
  %3 = alloca ptr, align 8
  %4 = alloca ptr, align 8
  %5 = alloca ptr, align 8
  %6 = alloca ptr, align 8
  %7 = alloca i64, align 8
  %8 = alloca ptr, align 8
  %9 = alloca ptr, align 8
  store ptr %0, ptr %4, align 8
  store ptr %1, ptr %5, align 8
  %10 = load ptr, ptr %4, align 8
  %11 = getelementptr inbounds %struct._zend_execute_data, ptr %10, i32 0, i32 4
  %12 = getelementptr inbounds %struct._zval_struct, ptr %11, i32 0, i32 0
  %13 = load ptr, ptr %12, align 8
  %14 = call ptr @spl_object_storage_from_obj(ptr noundef %13)
  store ptr %14, ptr %6, align 8
  store i64 0, ptr %7, align 8
  %15 = load ptr, ptr %4, align 8
  %16 = getelementptr inbounds %struct._zend_execute_data, ptr %15, i32 0, i32 4
  %17 = getelementptr inbounds %struct._zval_struct, ptr %16, i32 0, i32 2
  %18 = load i32, ptr %17, align 4
  %19 = call i32 (i32, ptr, ...) @zend_parse_parameters(i32 noundef %18, ptr noundef @.str.2, ptr noundef %7)
  %20 = icmp eq i32 %19, -1
  br i1 %20, label %21, label %26

21:                                               ; preds = %2
  br label %22

22:                                               ; preds = %21
  %23 = load ptr, ptr getelementptr inbounds (%struct._zend_executor_globals, ptr @executor_globals, i32 0, i32 50), align 8
  %24 = icmp ne ptr %23, null
  call void @llvm.assume(i1 %24)
  br label %57

25:                                               ; No predecessors!
  br label %26

26:                                               ; preds = %25, %2
  %27 = load i64, ptr %7, align 8
  %28 = icmp eq i64 %27, 1
  br i1 %28, label %29, label %42

29:                                               ; preds = %26
  br label %30

30:                                               ; preds = %29
  br label %31

31:                                               ; preds = %30
  %32 = load ptr, ptr %5, align 8
  store ptr %32, ptr %8, align 8
  %33 = load ptr, ptr %6, align 8
  %34 = getelementptr inbounds %struct._spl_SplObjectStorage, ptr %33, i32 0, i32 0
  %35 = call i64 @php_count_recursive(ptr noundef %34)
  %36 = load ptr, ptr %8, align 8
  %37 = getelementptr inbounds %struct._zval_struct, ptr %36, i32 0, i32 0
  store i64 %35, ptr %37, align 8
  %38 = load ptr, ptr %8, align 8
  %39 = getelementptr inbounds %struct._zval_struct, ptr %38, i32 0, i32 1
  store i32 4, ptr %39, align 8
  br label %40

40:                                               ; preds = %31
  br label %57

41:                                               ; No predecessors!
  br label %42

42:                                               ; preds = %41, %26
  br label %43

43:                                               ; preds = %42
  br label %44

44:                                               ; preds = %43
  %45 = load ptr, ptr %5, align 8
  store ptr %45, ptr %9, align 8
  %46 = load ptr, ptr %6, align 8
  %47 = getelementptr inbounds %struct._spl_SplObjectStorage, ptr %46, i32 0, i32 0
  store ptr %47, ptr %3, align 8
  %48 = load ptr, ptr %3, align 8
  %49 = getelementptr inbounds %struct._zend_array, ptr %48, i32 0, i32 5
  %50 = load i32, ptr %49, align 4
  %51 = zext i32 %50 to i64
  %52 = load ptr, ptr %9, align 8
  %53 = getelementptr inbounds %struct._zval_struct, ptr %52, i32 0, i32 0
  store i64 %51, ptr %53, align 8
  %54 = load ptr, ptr %9, align 8
  %55 = getelementptr inbounds %struct._zval_struct, ptr %54, i32 0, i32 1
  store i32 4, ptr %55, align 8
  br label %56

56:                                               ; preds = %44
  br label %57

57:                                               ; preds = %56, %40, %22
  ret void
}