; Function Attrs: nounwind uwtable
define hidden void @zim_SplObjectStorage_count(ptr nocapture noundef readonly %0, ptr nocapture noundef writeonly %1) #0 {
  %3 = alloca i64, align 8
  %4 = getelementptr inbounds i8, ptr %0, i64 32
  %5 = load ptr, ptr %4, align 8
  %6 = getelementptr inbounds i8, ptr %5, i64 -88
  store i64 0, ptr %3, align 8
  %7 = getelementptr inbounds i8, ptr %0, i64 44
  %8 = load i32, ptr %7, align 4
  %9 = call i32 (i32, ptr, ...) @zend_parse_parameters(i32 noundef %8, ptr noundef nonnull @.str.2, ptr noundef nonnull %3) #10
  %10 = icmp eq i32 %9, -1
  br i1 %10, label %11, label %14

11:                                               ; preds = %2
  %12 = load ptr, ptr getelementptr inbounds (%struct._zend_executor_globals, ptr @executor_globals, i64 0, i32 50), align 8
  %13 = icmp ne ptr %12, null
  call void @llvm.assume(i1 %13)
  br label %25

14:                                               ; preds = %2
  %15 = load i64, ptr %3, align 8
  %16 = icmp eq i64 %15, 1
  br i1 %16, label %17, label %20

17:                                               ; preds = %14
  %18 = call i64 @php_count_recursive(ptr noundef nonnull %6) #10
  store i64 %18, ptr %1, align 8
  %19 = getelementptr inbounds i8, ptr %1, i64 8
  store i32 4, ptr %19, align 8
  br label %25

20:                                               ; preds = %14
  %21 = getelementptr inbounds i8, ptr %5, i64 -60
  %22 = load i32, ptr %21, align 4
  %23 = zext i32 %22 to i64
  store i64 %23, ptr %1, align 8
  %24 = getelementptr inbounds i8, ptr %1, i64 8
  store i32 4, ptr %24, align 8
  br label %25

25:                                               ; preds = %20, %17, %11
  ret void
}